; ModuleID = '9/320.c'
source_filename = "9/320.c"
target datalayout = "e-m:e-p270:32:32-p271:32:32-p272:64:64-i64:64-f80:128-n8:16:32:64-S128"
target triple = "x86_64-pc-linux-gnu"

%struct.point = type { [10 x i8], i32 }

@.str = private unnamed_addr constant [3 x i8] c"%d\00", align 1
@.str.1 = private unnamed_addr constant [6 x i8] c"%s %d\00", align 1
@old = common dso_local global [100 x %struct.point] zeroinitializer, align 16
@small = common dso_local global [100 x %struct.point] zeroinitializer, align 16
@.str.2 = private unnamed_addr constant [4 x i8] c"%s\0A\00", align 1

; Function Attrs: noinline nounwind uwtable
define dso_local i32 @main() #0 {
  %1 = alloca i32, align 4
  %2 = alloca i32, align 4
  %3 = alloca i32, align 4
  %4 = alloca i32, align 4
  %5 = alloca i32, align 4
  %6 = alloca i32, align 4
  %7 = alloca i32, align 4
  %8 = alloca i32, align 4
  %9 = alloca [10 x i8], align 1
  %10 = alloca [10 x i8], align 1
  store i32 0, i32* %1, align 4
  store i32 0, i32* %5, align 4
  store i32 0, i32* %6, align 4
  %11 = call i32 (i8*, ...) @__isoc99_scanf(i8* getelementptr inbounds ([3 x i8], [3 x i8]* @.str, i64 0, i64 0), i32* %2)
  store i32 0, i32* %3, align 4
  br label %12

12:                                               ; preds = %53, %0
  %13 = load i32, i32* %3, align 4
  %14 = load i32, i32* %2, align 4
  %15 = icmp slt i32 %13, %14
  br i1 %15, label %16, label %56

16:                                               ; preds = %12
  %17 = bitcast [10 x i8]* %9 to i8*
  call void @llvm.memset.p0i8.i64(i8* align 1 %17, i8 0, i64 10, i1 false)
  store i32 0, i32* %7, align 4
  %18 = getelementptr inbounds [10 x i8], [10 x i8]* %9, i64 0, i64 0
  %19 = call i32 (i8*, ...) @__isoc99_scanf(i8* getelementptr inbounds ([6 x i8], [6 x i8]* @.str.1, i64 0, i64 0), i8* %18, i32* %7)
  %20 = load i32, i32* %7, align 4
  %21 = icmp sge i32 %20, 60
  br i1 %21, label %22, label %37

22:                                               ; preds = %16
  %23 = load i32, i32* %5, align 4
  %24 = sext i32 %23 to i64
  %25 = getelementptr inbounds [100 x %struct.point], [100 x %struct.point]* @old, i64 0, i64 %24
  %26 = getelementptr inbounds %struct.point, %struct.point* %25, i32 0, i32 0
  %27 = getelementptr inbounds [10 x i8], [10 x i8]* %26, i64 0, i64 0
  %28 = getelementptr inbounds [10 x i8], [10 x i8]* %9, i64 0, i64 0
  %29 = call i8* @strcpy(i8* %27, i8* %28) #4
  %30 = load i32, i32* %7, align 4
  %31 = load i32, i32* %5, align 4
  %32 = sext i32 %31 to i64
  %33 = getelementptr inbounds [100 x %struct.point], [100 x %struct.point]* @old, i64 0, i64 %32
  %34 = getelementptr inbounds %struct.point, %struct.point* %33, i32 0, i32 1
  store i32 %30, i32* %34, align 4
  %35 = load i32, i32* %5, align 4
  %36 = add nsw i32 %35, 1
  store i32 %36, i32* %5, align 4
  br label %52

37:                                               ; preds = %16
  %38 = load i32, i32* %6, align 4
  %39 = sext i32 %38 to i64
  %40 = getelementptr inbounds [100 x %struct.point], [100 x %struct.point]* @small, i64 0, i64 %39
  %41 = getelementptr inbounds %struct.point, %struct.point* %40, i32 0, i32 0
  %42 = getelementptr inbounds [10 x i8], [10 x i8]* %41, i64 0, i64 0
  %43 = getelementptr inbounds [10 x i8], [10 x i8]* %9, i64 0, i64 0
  %44 = call i8* @strcpy(i8* %42, i8* %43) #4
  %45 = load i32, i32* %7, align 4
  %46 = load i32, i32* %6, align 4
  %47 = sext i32 %46 to i64
  %48 = getelementptr inbounds [100 x %struct.point], [100 x %struct.point]* @small, i64 0, i64 %47
  %49 = getelementptr inbounds %struct.point, %struct.point* %48, i32 0, i32 1
  store i32 %45, i32* %49, align 4
  %50 = load i32, i32* %6, align 4
  %51 = add nsw i32 %50, 1
  store i32 %51, i32* %6, align 4
  br label %52

52:                                               ; preds = %37, %22
  br label %53

53:                                               ; preds = %52
  %54 = load i32, i32* %3, align 4
  %55 = add nsw i32 %54, 1
  store i32 %55, i32* %3, align 4
  br label %12

56:                                               ; preds = %12
  store i32 0, i32* %3, align 4
  br label %57

57:                                               ; preds = %140, %56
  %58 = load i32, i32* %3, align 4
  %59 = load i32, i32* %5, align 4
  %60 = icmp slt i32 %58, %59
  br i1 %60, label %61, label %143

61:                                               ; preds = %57
  store i32 1, i32* %4, align 4
  br label %62

62:                                               ; preds = %136, %61
  %63 = load i32, i32* %4, align 4
  %64 = load i32, i32* %5, align 4
  %65 = load i32, i32* %3, align 4
  %66 = sub nsw i32 %64, %65
  %67 = icmp slt i32 %63, %66
  br i1 %67, label %68, label %139

68:                                               ; preds = %62
  %69 = load i32, i32* %3, align 4
  %70 = sext i32 %69 to i64
  %71 = getelementptr inbounds [100 x %struct.point], [100 x %struct.point]* @old, i64 0, i64 %70
  %72 = getelementptr inbounds %struct.point, %struct.point* %71, i32 0, i32 1
  %73 = load i32, i32* %72, align 4
  %74 = load i32, i32* %3, align 4
  %75 = load i32, i32* %4, align 4
  %76 = add nsw i32 %74, %75
  %77 = sext i32 %76 to i64
  %78 = getelementptr inbounds [100 x %struct.point], [100 x %struct.point]* @old, i64 0, i64 %77
  %79 = getelementptr inbounds %struct.point, %struct.point* %78, i32 0, i32 1
  %80 = load i32, i32* %79, align 4
  %81 = icmp sge i32 %73, %80
  br i1 %81, label %82, label %135

82:                                               ; preds = %68
  %83 = load i32, i32* %3, align 4
  %84 = load i32, i32* %4, align 4
  %85 = add nsw i32 %83, %84
  %86 = sext i32 %85 to i64
  %87 = getelementptr inbounds [100 x %struct.point], [100 x %struct.point]* @old, i64 0, i64 %86
  %88 = getelementptr inbounds %struct.point, %struct.point* %87, i32 0, i32 1
  %89 = load i32, i32* %88, align 4
  store i32 %89, i32* %8, align 4
  %90 = load i32, i32* %3, align 4
  %91 = sext i32 %90 to i64
  %92 = getelementptr inbounds [100 x %struct.point], [100 x %struct.point]* @old, i64 0, i64 %91
  %93 = getelementptr inbounds %struct.point, %struct.point* %92, i32 0, i32 1
  %94 = load i32, i32* %93, align 4
  %95 = load i32, i32* %3, align 4
  %96 = load i32, i32* %4, align 4
  %97 = add nsw i32 %95, %96
  %98 = sext i32 %97 to i64
  %99 = getelementptr inbounds [100 x %struct.point], [100 x %struct.point]* @old, i64 0, i64 %98
  %100 = getelementptr inbounds %struct.point, %struct.point* %99, i32 0, i32 1
  store i32 %94, i32* %100, align 4
  %101 = load i32, i32* %8, align 4
  %102 = load i32, i32* %3, align 4
  %103 = sext i32 %102 to i64
  %104 = getelementptr inbounds [100 x %struct.point], [100 x %struct.point]* @old, i64 0, i64 %103
  %105 = getelementptr inbounds %struct.point, %struct.point* %104, i32 0, i32 1
  store i32 %101, i32* %105, align 4
  %106 = getelementptr inbounds [10 x i8], [10 x i8]* %10, i64 0, i64 0
  %107 = load i32, i32* %3, align 4
  %108 = load i32, i32* %4, align 4
  %109 = add nsw i32 %107, %108
  %110 = sext i32 %109 to i64
  %111 = getelementptr inbounds [100 x %struct.point], [100 x %struct.point]* @old, i64 0, i64 %110
  %112 = getelementptr inbounds %struct.point, %struct.point* %111, i32 0, i32 0
  %113 = getelementptr inbounds [10 x i8], [10 x i8]* %112, i64 0, i64 0
  %114 = call i8* @strcpy(i8* %106, i8* %113) #4
  %115 = load i32, i32* %3, align 4
  %116 = load i32, i32* %4, align 4
  %117 = add nsw i32 %115, %116
  %118 = sext i32 %117 to i64
  %119 = getelementptr inbounds [100 x %struct.point], [100 x %struct.point]* @old, i64 0, i64 %118
  %120 = getelementptr inbounds %struct.point, %struct.point* %119, i32 0, i32 0
  %121 = getelementptr inbounds [10 x i8], [10 x i8]* %120, i64 0, i64 0
  %122 = load i32, i32* %3, align 4
  %123 = sext i32 %122 to i64
  %124 = getelementptr inbounds [100 x %struct.point], [100 x %struct.point]* @old, i64 0, i64 %123
  %125 = getelementptr inbounds %struct.point, %struct.point* %124, i32 0, i32 0
  %126 = getelementptr inbounds [10 x i8], [10 x i8]* %125, i64 0, i64 0
  %127 = call i8* @strcpy(i8* %121, i8* %126) #4
  %128 = load i32, i32* %3, align 4
  %129 = sext i32 %128 to i64
  %130 = getelementptr inbounds [100 x %struct.point], [100 x %struct.point]* @old, i64 0, i64 %129
  %131 = getelementptr inbounds %struct.point, %struct.point* %130, i32 0, i32 0
  %132 = getelementptr inbounds [10 x i8], [10 x i8]* %131, i64 0, i64 0
  %133 = getelementptr inbounds [10 x i8], [10 x i8]* %10, i64 0, i64 0
  %134 = call i8* @strcpy(i8* %132, i8* %133) #4
  br label %135

135:                                              ; preds = %82, %68
  br label %136

136:                                              ; preds = %135
  %137 = load i32, i32* %4, align 4
  %138 = add nsw i32 %137, 1
  store i32 %138, i32* %4, align 4
  br label %62

139:                                              ; preds = %62
  br label %140

140:                                              ; preds = %139
  %141 = load i32, i32* %3, align 4
  %142 = add nsw i32 %141, 1
  store i32 %142, i32* %3, align 4
  br label %57

143:                                              ; preds = %57
  %144 = load i32, i32* %5, align 4
  %145 = sub nsw i32 %144, 1
  store i32 %145, i32* %3, align 4
  br label %146

146:                                              ; preds = %156, %143
  %147 = load i32, i32* %3, align 4
  %148 = icmp sge i32 %147, 0
  br i1 %148, label %149, label %159

149:                                              ; preds = %146
  %150 = load i32, i32* %3, align 4
  %151 = sext i32 %150 to i64
  %152 = getelementptr inbounds [100 x %struct.point], [100 x %struct.point]* @old, i64 0, i64 %151
  %153 = getelementptr inbounds %struct.point, %struct.point* %152, i32 0, i32 0
  %154 = getelementptr inbounds [10 x i8], [10 x i8]* %153, i64 0, i64 0
  %155 = call i32 (i8*, ...) @printf(i8* getelementptr inbounds ([4 x i8], [4 x i8]* @.str.2, i64 0, i64 0), i8* %154)
  br label %156

156:                                              ; preds = %149
  %157 = load i32, i32* %3, align 4
  %158 = add nsw i32 %157, -1
  store i32 %158, i32* %3, align 4
  br label %146

159:                                              ; preds = %146
  store i32 0, i32* %3, align 4
  br label %160

160:                                              ; preds = %171, %159
  %161 = load i32, i32* %3, align 4
  %162 = load i32, i32* %6, align 4
  %163 = icmp slt i32 %161, %162
  br i1 %163, label %164, label %174

164:                                              ; preds = %160
  %165 = load i32, i32* %3, align 4
  %166 = sext i32 %165 to i64
  %167 = getelementptr inbounds [100 x %struct.point], [100 x %struct.point]* @small, i64 0, i64 %166
  %168 = getelementptr inbounds %struct.point, %struct.point* %167, i32 0, i32 0
  %169 = getelementptr inbounds [10 x i8], [10 x i8]* %168, i64 0, i64 0
  %170 = call i32 (i8*, ...) @printf(i8* getelementptr inbounds ([4 x i8], [4 x i8]* @.str.2, i64 0, i64 0), i8* %169)
  br label %171

171:                                              ; preds = %164
  %172 = load i32, i32* %3, align 4
  %173 = add nsw i32 %172, 1
  store i32 %173, i32* %3, align 4
  br label %160

174:                                              ; preds = %160
  %175 = load i32, i32* %1, align 4
  ret i32 %175
}

declare dso_local i32 @__isoc99_scanf(i8*, ...) #1

; Function Attrs: argmemonly nounwind willreturn
declare void @llvm.memset.p0i8.i64(i8* nocapture writeonly, i8, i64, i1 immarg) #2

; Function Attrs: nounwind
declare dso_local i8* @strcpy(i8*, i8*) #3

declare dso_local i32 @printf(i8*, ...) #1


!llvm.module.flags = !{!0}
!llvm.ident = !{!1}

!0 = !{i32 1, !"wchar_size", i32 4}
!1 = !{!"clang version 10.0.0-4ubuntu1 "}
